target datalayout = "e-m:e-p270:32:32-p271:32:32-p272:64:64-i64:64-i128:128-f80:128-n8:16:32:64-S128"
target triple = "x86_64-pc-linux-gnu"

%class.OverlayScrollBar = type <{ %class.QScrollBar, ptr, ptr, %class.QScrollBar, %class.QImage, %class.QImage, i32, i32, i32, i32, i32, [4 x i8], %class.QList, i32, [4 x i8] }>
%class.QScrollBar = type { %class.QAbstractSlider }
%class.QAbstractSlider = type { %class.QWidget }
%class.QWidget = type { %class.QObject, %class.QPaintDevice.base, ptr }
%class.QObject = type { ptr, %class.QScopedPointer }
%class.QScopedPointer = type { ptr }
%class.QPaintDevice.base = type <{ ptr, i16 }>
%class.QImage = type { %class.QPaintDevice.base, ptr }
%class.QList = type { %struct.QArrayDataPointer }
%struct.QArrayDataPointer = type { ptr, ptr, i64 }
%class.QSize = type { i32, i32 }

; Function Attrs: mustprogress nounwind uwtable
define linkonce_odr void @_ZN5QSizeC2Eii(ptr noundef nonnull align 4 dereferenceable(8) %0, i32 noundef %1, i32 noundef %2) unnamed_addr #4 comdat align 2 {
  %4 = alloca ptr, align 8
  %5 = alloca i32, align 4
  %6 = alloca i32, align 4
  store ptr %0, ptr %4, align 8
  store i32 %1, ptr %5, align 4
  store i32 %2, ptr %6, align 4
  %7 = load ptr, ptr %4, align 8
  %8 = getelementptr inbounds %class.QSize, ptr %7, i32 0, i32 0
  %9 = load i32, ptr %5, align 4
  store i32 %9, ptr %8, align 4
  %10 = getelementptr inbounds %class.QSize, ptr %7, i32 0, i32 1
  %11 = load i32, ptr %6, align 4
  store i32 %11, ptr %10, align 4
  ret void
}

; Function Attrs: mustprogress nounwind uwtable
define linkonce_odr noundef i32 @_ZNK5QSize6heightEv(ptr noundef nonnull align 4 dereferenceable(8) %0) #4 comdat align 2 {
  %2 = alloca ptr, align 8
  store ptr %0, ptr %2, align 8
  %3 = load ptr, ptr %2, align 8
  %4 = getelementptr inbounds %class.QSize, ptr %3, i32 0, i32 1
  %5 = load i32, ptr %4, align 4
  ret i32 %5
}

; Function Attrs: mustprogress nounwind uwtable
define linkonce_odr noundef i32 @_ZNK5QSize5widthEv(ptr noundef nonnull align 4 dereferenceable(8) %0) #4 comdat align 2 {
  %2 = alloca ptr, align 8
  store ptr %0, ptr %2, align 8
  %3 = load ptr, ptr %2, align 8
  %4 = getelementptr inbounds %class.QSize, ptr %3, i32 0, i32 0
  %5 = load i32, ptr %4, align 4
  ret i32 %5
}

; Function Attrs: mustprogress uwtable
define i64 @_ZNK16OverlayScrollBar8sizeHintEv(ptr noundef nonnull align 8 dereferenceable(196) %0) unnamed_addr #0 align 2 {
  %2 = alloca %class.QSize, align 4
  %3 = alloca ptr, align 8
  %4 = alloca %class.QSize, align 4
  %5 = alloca %class.QSize, align 4
  store ptr %0, ptr %3, align 8
  %6 = load ptr, ptr %3, align 8
  %7 = getelementptr inbounds %class.OverlayScrollBar, ptr %6, i32 0, i32 6
  %8 = load i32, ptr %7, align 8
  %9 = getelementptr inbounds %class.OverlayScrollBar, ptr %6, i32 0, i32 3
  %10 = call i64 @_ZNK10QScrollBar8sizeHintEv(ptr noundef nonnull align 8 dereferenceable(40) %9)
  store i64 %10, ptr %4, align 4
  %11 = call noundef i32 @_ZNK5QSize5widthEv(ptr noundef nonnull align 4 dereferenceable(8) %4) #11
  %12 = add i32 %8, %11
  %13 = call i64 @_ZNK10QScrollBar8sizeHintEv(ptr noundef nonnull align 8 dereferenceable(40) %6)
  store i64 %13, ptr %5, align 4
  %14 = call noundef i32 @_ZNK5QSize6heightEv(ptr noundef nonnull align 4 dereferenceable(8) %5) #11
  call void @_ZN5QSizeC2Eii(ptr noundef nonnull align 4 dereferenceable(8) %2, i32 noundef %12, i32 noundef %14) #11
  %15 = load i64, ptr %2, align 4
  ret i64 %15
}