; Function Attrs: mustprogress uwtable
define i64 @_ZNK16OverlayScrollBar8sizeHintEv(ptr noundef nonnull align 8 dereferenceable(196) %0) unnamed_addr #0 align 2 {
  %2 = getelementptr inbounds i8, ptr %0, i64 144
  %3 = load i32, ptr %2, align 8
  %4 = getelementptr inbounds i8, ptr %0, i64 56
  %5 = tail call i64 @_ZNK10QScrollBar8sizeHintEv(ptr noundef nonnull align 8 dereferenceable(40) %4)
  %.sroa.01.0.extract.trunc = trunc i64 %5 to i32
  %6 = add i32 %3, %.sroa.01.0.extract.trunc
  %7 = tail call i64 @_ZNK10QScrollBar8sizeHintEv(ptr noundef nonnull align 8 dereferenceable(40) %0)
  %.sroa.1.0.extract.shift = and i64 %7, -4294967296
  %.sroa.02.0.insert.ext = zext i32 %6 to i64
  %.sroa.02.0.insert.insert = or disjoint i64 %.sroa.1.0.extract.shift, %.sroa.02.0.insert.ext
  ret i64 %.sroa.02.0.insert.insert
}